; ModuleID = '55/521.c'
source_filename = "55/521.c"
target datalayout = "e-m:e-p270:32:32-p271:32:32-p272:64:64-i64:64-f80:128-n8:16:32:64-S128"
target triple = "x86_64-pc-linux-gnu"

@.str = private unnamed_addr constant [9 x i8] c"%d %s %d\00", align 1
@.str.1 = private unnamed_addr constant [3 x i8] c"%c\00", align 1

; Function Attrs: noinline nounwind uwtable
define dso_local void @main() #0 {
  %1 = alloca i32, align 4
  %2 = alloca i32, align 4
  %3 = alloca i32, align 4
  %4 = alloca i32, align 4
  %5 = alloca i32, align 4
  %6 = alloca i64, align 8
  %7 = alloca [1000 x i8], align 16
  %8 = alloca [1000 x i8], align 16
  %9 = alloca [1000 x i32], align 16
  %10 = alloca [1000 x i32], align 16
  store i64 0, i64* %6, align 8
  %11 = getelementptr inbounds [1000 x i8], [1000 x i8]* %7, i64 0, i64 0
  %12 = call i32 (i8*, ...) @__isoc99_scanf(i8* getelementptr inbounds ([9 x i8], [9 x i8]* @.str, i64 0, i64 0), i32* %1, i8* %11, i32* %2)
  %13 = getelementptr inbounds [1000 x i8], [1000 x i8]* %7, i64 0, i64 0
  %14 = call i64 @strlen(i8* %13) #3
  %15 = trunc i64 %14 to i32
  store i32 %15, i32* %5, align 4
  store i32 0, i32* %3, align 4
  br label %16

16:                                               ; preds = %105, %0
  %17 = load i32, i32* %3, align 4
  %18 = load i32, i32* %5, align 4
  %19 = icmp slt i32 %17, %18
  br i1 %19, label %20, label %108

20:                                               ; preds = %16
  %21 = load i32, i32* %3, align 4
  %22 = sext i32 %21 to i64
  %23 = getelementptr inbounds [1000 x i8], [1000 x i8]* %7, i64 0, i64 %22
  %24 = load i8, i8* %23, align 1
  %25 = sext i8 %24 to i32
  %26 = icmp sge i32 %25, 48
  br i1 %26, label %27, label %44

27:                                               ; preds = %20
  %28 = load i32, i32* %3, align 4
  %29 = sext i32 %28 to i64
  %30 = getelementptr inbounds [1000 x i8], [1000 x i8]* %7, i64 0, i64 %29
  %31 = load i8, i8* %30, align 1
  %32 = sext i8 %31 to i32
  %33 = icmp sle i32 %32, 57
  br i1 %33, label %34, label %44

34:                                               ; preds = %27
  %35 = load i32, i32* %3, align 4
  %36 = sext i32 %35 to i64
  %37 = getelementptr inbounds [1000 x i8], [1000 x i8]* %7, i64 0, i64 %36
  %38 = load i8, i8* %37, align 1
  %39 = sext i8 %38 to i32
  %40 = sub nsw i32 %39, 48
  %41 = load i32, i32* %3, align 4
  %42 = sext i32 %41 to i64
  %43 = getelementptr inbounds [1000 x i32], [1000 x i32]* %9, i64 0, i64 %42
  store i32 %40, i32* %43, align 4
  br label %94

44:                                               ; preds = %27, %20
  %45 = load i32, i32* %3, align 4
  %46 = sext i32 %45 to i64
  %47 = getelementptr inbounds [1000 x i8], [1000 x i8]* %7, i64 0, i64 %46
  %48 = load i8, i8* %47, align 1
  %49 = sext i8 %48 to i32
  %50 = icmp sle i32 %49, 90
  br i1 %50, label %51, label %68

51:                                               ; preds = %44
  %52 = load i32, i32* %3, align 4
  %53 = sext i32 %52 to i64
  %54 = getelementptr inbounds [1000 x i8], [1000 x i8]* %7, i64 0, i64 %53
  %55 = load i8, i8* %54, align 1
  %56 = sext i8 %55 to i32
  %57 = icmp sge i32 %56, 65
  br i1 %57, label %58, label %68

58:                                               ; preds = %51
  %59 = load i32, i32* %3, align 4
  %60 = sext i32 %59 to i64
  %61 = getelementptr inbounds [1000 x i8], [1000 x i8]* %7, i64 0, i64 %60
  %62 = load i8, i8* %61, align 1
  %63 = sext i8 %62 to i32
  %64 = sub nsw i32 %63, 55
  %65 = load i32, i32* %3, align 4
  %66 = sext i32 %65 to i64
  %67 = getelementptr inbounds [1000 x i32], [1000 x i32]* %9, i64 0, i64 %66
  store i32 %64, i32* %67, align 4
  br label %93

68:                                               ; preds = %51, %44
  %69 = load i32, i32* %3, align 4
  %70 = sext i32 %69 to i64
  %71 = getelementptr inbounds [1000 x i8], [1000 x i8]* %7, i64 0, i64 %70
  %72 = load i8, i8* %71, align 1
  %73 = sext i8 %72 to i32
  %74 = icmp sle i32 %73, 122
  br i1 %74, label %75, label %92

75:                                               ; preds = %68
  %76 = load i32, i32* %3, align 4
  %77 = sext i32 %76 to i64
  %78 = getelementptr inbounds [1000 x i8], [1000 x i8]* %7, i64 0, i64 %77
  %79 = load i8, i8* %78, align 1
  %80 = sext i8 %79 to i32
  %81 = icmp sge i32 %80, 97
  br i1 %81, label %82, label %92

82:                                               ; preds = %75
  %83 = load i32, i32* %3, align 4
  %84 = sext i32 %83 to i64
  %85 = getelementptr inbounds [1000 x i8], [1000 x i8]* %7, i64 0, i64 %84
  %86 = load i8, i8* %85, align 1
  %87 = sext i8 %86 to i32
  %88 = sub nsw i32 %87, 87
  %89 = load i32, i32* %3, align 4
  %90 = sext i32 %89 to i64
  %91 = getelementptr inbounds [1000 x i32], [1000 x i32]* %9, i64 0, i64 %90
  store i32 %88, i32* %91, align 4
  br label %92

92:                                               ; preds = %82, %75, %68
  br label %93

93:                                               ; preds = %92, %58
  br label %94

94:                                               ; preds = %93, %34
  %95 = load i64, i64* %6, align 8
  %96 = load i32, i32* %1, align 4
  %97 = sext i32 %96 to i64
  %98 = mul nsw i64 %95, %97
  %99 = load i32, i32* %3, align 4
  %100 = sext i32 %99 to i64
  %101 = getelementptr inbounds [1000 x i32], [1000 x i32]* %9, i64 0, i64 %100
  %102 = load i32, i32* %101, align 4
  %103 = sext i32 %102 to i64
  %104 = add nsw i64 %98, %103
  store i64 %104, i64* %6, align 8
  br label %105

105:                                              ; preds = %94
  %106 = load i32, i32* %3, align 4
  %107 = add nsw i32 %106, 1
  store i32 %107, i32* %3, align 4
  br label %16

108:                                              ; preds = %16
  store i32 0, i32* %3, align 4
  br label %109

109:                                              ; preds = %130, %108
  %110 = load i32, i32* %3, align 4
  %111 = icmp slt i32 %110, 1000
  br i1 %111, label %112, label %133

112:                                              ; preds = %109
  %113 = load i32, i32* %3, align 4
  store i32 %113, i32* %4, align 4
  %114 = load i64, i64* %6, align 8
  %115 = load i32, i32* %2, align 4
  %116 = sext i32 %115 to i64
  %117 = srem i64 %114, %116
  %118 = trunc i64 %117 to i32
  %119 = load i32, i32* %3, align 4
  %120 = sext i32 %119 to i64
  %121 = getelementptr inbounds [1000 x i32], [1000 x i32]* %10, i64 0, i64 %120
  store i32 %118, i32* %121, align 4
  %122 = load i64, i64* %6, align 8
  %123 = load i32, i32* %2, align 4
  %124 = sext i32 %123 to i64
  %125 = sdiv i64 %122, %124
  store i64 %125, i64* %6, align 8
  %126 = load i64, i64* %6, align 8
  %127 = icmp eq i64 %126, 0
  br i1 %127, label %128, label %129

128:                                              ; preds = %112
  br label %133

129:                                              ; preds = %112
  br label %130

130:                                              ; preds = %129
  %131 = load i32, i32* %3, align 4
  %132 = add nsw i32 %131, 1
  store i32 %132, i32* %3, align 4
  br label %109

133:                                              ; preds = %128, %109
  store i32 0, i32* %3, align 4
  br label %134

134:                                              ; preds = %179, %133
  %135 = load i32, i32* %3, align 4
  %136 = load i32, i32* %4, align 4
  %137 = icmp sle i32 %135, %136
  br i1 %137, label %138, label %182

138:                                              ; preds = %134
  %139 = load i32, i32* %3, align 4
  %140 = sext i32 %139 to i64
  %141 = getelementptr inbounds [1000 x i32], [1000 x i32]* %10, i64 0, i64 %140
  %142 = load i32, i32* %141, align 4
  %143 = icmp sge i32 %142, 0
  br i1 %143, label %144, label %160

144:                                              ; preds = %138
  %145 = load i32, i32* %3, align 4
  %146 = sext i32 %145 to i64
  %147 = getelementptr inbounds [1000 x i32], [1000 x i32]* %10, i64 0, i64 %146
  %148 = load i32, i32* %147, align 4
  %149 = icmp sle i32 %148, 9
  br i1 %149, label %150, label %160

150:                                              ; preds = %144
  %151 = load i32, i32* %3, align 4
  %152 = sext i32 %151 to i64
  %153 = getelementptr inbounds [1000 x i32], [1000 x i32]* %10, i64 0, i64 %152
  %154 = load i32, i32* %153, align 4
  %155 = add nsw i32 %154, 48
  %156 = trunc i32 %155 to i8
  %157 = load i32, i32* %3, align 4
  %158 = sext i32 %157 to i64
  %159 = getelementptr inbounds [1000 x i8], [1000 x i8]* %8, i64 0, i64 %158
  store i8 %156, i8* %159, align 1
  br label %178

160:                                              ; preds = %144, %138
  %161 = load i32, i32* %3, align 4
  %162 = sext i32 %161 to i64
  %163 = getelementptr inbounds [1000 x i32], [1000 x i32]* %10, i64 0, i64 %162
  %164 = load i32, i32* %163, align 4
  %165 = icmp sge i32 %164, 10
  br i1 %165, label %166, label %176

166:                                              ; preds = %160
  %167 = load i32, i32* %3, align 4
  %168 = sext i32 %167 to i64
  %169 = getelementptr inbounds [1000 x i32], [1000 x i32]* %10, i64 0, i64 %168
  %170 = load i32, i32* %169, align 4
  %171 = add nsw i32 %170, 55
  %172 = trunc i32 %171 to i8
  %173 = load i32, i32* %3, align 4
  %174 = sext i32 %173 to i64
  %175 = getelementptr inbounds [1000 x i8], [1000 x i8]* %8, i64 0, i64 %174
  store i8 %172, i8* %175, align 1
  br label %177

176:                                              ; preds = %160
  br label %182

177:                                              ; preds = %166
  br label %178

178:                                              ; preds = %177, %150
  br label %179

179:                                              ; preds = %178
  %180 = load i32, i32* %3, align 4
  %181 = add nsw i32 %180, 1
  store i32 %181, i32* %3, align 4
  br label %134

182:                                              ; preds = %176, %134
  %183 = load i32, i32* %4, align 4
  store i32 %183, i32* %3, align 4
  br label %184

184:                                              ; preds = %194, %182
  %185 = load i32, i32* %3, align 4
  %186 = icmp sge i32 %185, 0
  br i1 %186, label %187, label %197

187:                                              ; preds = %184
  %188 = load i32, i32* %3, align 4
  %189 = sext i32 %188 to i64
  %190 = getelementptr inbounds [1000 x i8], [1000 x i8]* %8, i64 0, i64 %189
  %191 = load i8, i8* %190, align 1
  %192 = sext i8 %191 to i32
  %193 = call i32 (i8*, ...) @printf(i8* getelementptr inbounds ([3 x i8], [3 x i8]* @.str.1, i64 0, i64 0), i32 %192)
  br label %194

194:                                              ; preds = %187
  %195 = load i32, i32* %3, align 4
  %196 = add nsw i32 %195, -1
  store i32 %196, i32* %3, align 4
  br label %184

197:                                              ; preds = %184
  ret void
}

declare dso_local i32 @__isoc99_scanf(i8*, ...) #1

; Function Attrs: nounwind readonly
declare dso_local i64 @strlen(i8*) #2

declare dso_local i32 @printf(i8*, ...) #1


!llvm.module.flags = !{!0}
!llvm.ident = !{!1}

!0 = !{i32 1, !"wchar_size", i32 4}
!1 = !{!"clang version 10.0.0-4ubuntu1 "}
